target datalayout = "e-m:e-p270:32:32-p271:32:32-p272:64:64-i64:64-i128:128-f80:128-n8:16:32:64-S128"
target triple = "x86_64-unknown-linux-gnu"

%"class.EA::UnitTest::TestCollection" = type { ptr, %"class.eastl::vector" }
%"class.eastl::vector" = type { %"struct.eastl::VectorBase" }
%"struct.eastl::VectorBase" = type { ptr, ptr, %"class.eastl::compressed_pair.0" }
%"class.eastl::compressed_pair.0" = type { %"class.eastl::compressed_pair_imp.1" }
%"class.eastl::compressed_pair_imp.1" = type { ptr }
%"struct.EA::UnitTest::TestCollection::TestInfo" = type { ptr, i8 }

; Function Attrs: mustprogress nounwind uwtable
define linkonce_odr dso_local noundef ptr @_ZN5eastl20move_and_copy_helperINS_26random_access_iterator_tagELb1ELb1EE12move_or_copyIN2EA8UnitTest14TestCollection8TestInfoEEEPT_PKS8_SB_S9_(ptr noundef %first, ptr noundef %last, ptr noundef %result) #1 comdat align 2 {
entry:
  %retval = alloca ptr, align 8
  %first.addr = alloca ptr, align 8
  %last.addr = alloca ptr, align 8
  %result.addr = alloca ptr, align 8
  store ptr %first, ptr %first.addr, align 8
  store ptr %last, ptr %last.addr, align 8
  store ptr %result, ptr %result.addr, align 8
  %0 = load ptr, ptr %first.addr, align 8
  %1 = load ptr, ptr %last.addr, align 8
  %cmp = icmp eq ptr %0, %1
  %lnot = xor i1 %cmp, true
  %lnot1 = xor i1 %lnot, true
  br i1 %lnot1, label %if.then, label %if.end

if.then:                                          ; preds = %entry
  %2 = load ptr, ptr %result.addr, align 8
  store ptr %2, ptr %retval, align 8
  br label %return

if.end:                                           ; preds = %entry
  %3 = load ptr, ptr %result.addr, align 8
  %4 = load ptr, ptr %first.addr, align 8
  %5 = load ptr, ptr %last.addr, align 8
  %6 = ptrtoint ptr %5 to i64
  %7 = load ptr, ptr %first.addr, align 8
  %8 = ptrtoint ptr %7 to i64
  %sub = sub i64 %6, %8
  call void @llvm.memmove.p0.p0.i64(ptr align 8 %3, ptr align 8 %4, i64 %sub, i1 false)
  %9 = load ptr, ptr %last.addr, align 8
  %10 = load ptr, ptr %first.addr, align 8
  %sub.ptr.lhs.cast = ptrtoint ptr %9 to i64
  %sub.ptr.rhs.cast = ptrtoint ptr %10 to i64
  %sub.ptr.sub = sub i64 %sub.ptr.lhs.cast, %sub.ptr.rhs.cast
  %sub.ptr.div = sdiv exact i64 %sub.ptr.sub, 16
  %add.ptr = getelementptr inbounds %"struct.EA::UnitTest::TestCollection::TestInfo", ptr %3, i64 %sub.ptr.div
  store ptr %add.ptr, ptr %retval, align 8
  br label %return

return:                                           ; preds = %if.end, %if.then
  %11 = load ptr, ptr %retval, align 8
  ret ptr %11
}

; Function Attrs: mustprogress uwtable
define linkonce_odr dso_local noundef ptr @_ZN5eastl21move_and_copy_chooserILb1EPN2EA8UnitTest14TestCollection8TestInfoES5_EET1_T0_S7_S6_(ptr noundef %first, ptr noundef %last, ptr noundef %result) #2 comdat {
entry:
  %first.addr = alloca ptr, align 8
  %last.addr = alloca ptr, align 8
  %result.addr = alloca ptr, align 8
  %canBeMemmoved = alloca i8, align 1
  store ptr %first, ptr %first.addr, align 8
  store ptr %last, ptr %last.addr, align 8
  store ptr %result, ptr %result.addr, align 8
  store i8 1, ptr %canBeMemmoved, align 1
  %0 = load ptr, ptr %first.addr, align 8
  %1 = load ptr, ptr %last.addr, align 8
  %2 = load ptr, ptr %result.addr, align 8
  %call = call noundef ptr @_ZN5eastl20move_and_copy_helperINS_26random_access_iterator_tagELb1ELb1EE12move_or_copyIN2EA8UnitTest14TestCollection8TestInfoEEEPT_PKS8_SB_S9_(ptr noundef %0, ptr noundef %1, ptr noundef %2)
  ret ptr %call
}

; Function Attrs: mustprogress nounwind uwtable
define linkonce_odr dso_local noundef ptr @_ZN5eastl26is_iterator_wrapper_helperIPN2EA8UnitTest14TestCollection8TestInfoELb0EE13get_unwrappedES5_(ptr noundef %it) #1 comdat align 2 {
entry:
  %it.addr = alloca ptr, align 8
  store ptr %it, ptr %it.addr, align 8
  %0 = load ptr, ptr %it.addr, align 8
  ret ptr %0
}

; Function Attrs: mustprogress uwtable
define linkonce_odr dso_local noundef ptr @_ZN5eastl23move_and_copy_unwrapperILb1EPN2EA8UnitTest14TestCollection8TestInfoES5_EET1_T0_S7_S6_(ptr noundef %first, ptr noundef %last, ptr noundef %result) #2 comdat {
entry:
  %first.addr = alloca ptr, align 8
  %last.addr = alloca ptr, align 8
  %result.addr = alloca ptr, align 8
  store ptr %first, ptr %first.addr, align 8
  store ptr %last, ptr %last.addr, align 8
  store ptr %result, ptr %result.addr, align 8
  %0 = load ptr, ptr %first.addr, align 8
  %call = call noundef ptr @_ZN5eastl15unwrap_iteratorIPN2EA8UnitTest14TestCollection8TestInfoEEENS_26is_iterator_wrapper_helperIT_Xsr5eastl19is_iterator_wrapperIS7_EE5valueEE13iterator_typeES7_(ptr noundef %0)
  %1 = load ptr, ptr %last.addr, align 8
  %call1 = call noundef ptr @_ZN5eastl15unwrap_iteratorIPN2EA8UnitTest14TestCollection8TestInfoEEENS_26is_iterator_wrapper_helperIT_Xsr5eastl19is_iterator_wrapperIS7_EE5valueEE13iterator_typeES7_(ptr noundef %1)
  %2 = load ptr, ptr %result.addr, align 8
  %call2 = call noundef ptr @_ZN5eastl15unwrap_iteratorIPN2EA8UnitTest14TestCollection8TestInfoEEENS_26is_iterator_wrapper_helperIT_Xsr5eastl19is_iterator_wrapperIS7_EE5valueEE13iterator_typeES7_(ptr noundef %2)
  %call3 = call noundef ptr @_ZN5eastl21move_and_copy_chooserILb1EPN2EA8UnitTest14TestCollection8TestInfoES5_EET1_T0_S7_S6_(ptr noundef %call, ptr noundef %call1, ptr noundef %call2)
  ret ptr %call3
}

; Function Attrs: mustprogress uwtable
define linkonce_odr dso_local noundef ptr @_ZN5eastl15unwrap_iteratorIPN2EA8UnitTest14TestCollection8TestInfoEEENS_26is_iterator_wrapper_helperIT_Xsr5eastl19is_iterator_wrapperIS7_EE5valueEE13iterator_typeES7_(ptr noundef %it) #2 comdat {
entry:
  %it.addr = alloca ptr, align 8
  store ptr %it, ptr %it.addr, align 8
  %0 = load ptr, ptr %it.addr, align 8
  %call = call noundef ptr @_ZN5eastl26is_iterator_wrapper_helperIPN2EA8UnitTest14TestCollection8TestInfoELb0EE13get_unwrappedES5_(ptr noundef %0)
  ret ptr %call
}

; Function Attrs: mustprogress uwtable
define linkonce_odr dso_local noundef ptr @_ZN5eastl4moveIPN2EA8UnitTest14TestCollection8TestInfoES5_EET0_T_S7_S6_(ptr noundef %first, ptr noundef %last, ptr noundef %result) #2 comdat {
entry:
  %first.addr = alloca ptr, align 8
  %last.addr = alloca ptr, align 8
  %result.addr = alloca ptr, align 8
  store ptr %first, ptr %first.addr, align 8
  store ptr %last, ptr %last.addr, align 8
  store ptr %result, ptr %result.addr, align 8
  %0 = load ptr, ptr %first.addr, align 8
  %call = call noundef ptr @_ZN5eastl15unwrap_iteratorIPN2EA8UnitTest14TestCollection8TestInfoEEENS_26is_iterator_wrapper_helperIT_Xsr5eastl19is_iterator_wrapperIS7_EE5valueEE13iterator_typeES7_(ptr noundef %0)
  %1 = load ptr, ptr %last.addr, align 8
  %call1 = call noundef ptr @_ZN5eastl15unwrap_iteratorIPN2EA8UnitTest14TestCollection8TestInfoEEENS_26is_iterator_wrapper_helperIT_Xsr5eastl19is_iterator_wrapperIS7_EE5valueEE13iterator_typeES7_(ptr noundef %1)
  %2 = load ptr, ptr %result.addr, align 8
  %call2 = call noundef ptr @_ZN5eastl23move_and_copy_unwrapperILb1EPN2EA8UnitTest14TestCollection8TestInfoES5_EET1_T0_S7_S6_(ptr noundef %call, ptr noundef %call1, ptr noundef %2)
  ret ptr %call2
}

; Function Attrs: mustprogress uwtable
define linkonce_odr dso_local noundef ptr @_ZN5eastl6vectorIN2EA8UnitTest14TestCollection8TestInfoENS_9allocatorEE5eraseEPKS4_(ptr noundef nonnull align 8 dereferenceable(24) %this, ptr noundef %position) #2 comdat align 2 {
entry:
  %this.addr = alloca ptr, align 8
  %position.addr = alloca ptr, align 8
  %destPosition = alloca ptr, align 8
  store ptr %this, ptr %this.addr, align 8
  store ptr %position, ptr %position.addr, align 8
  %this1 = load ptr, ptr %this.addr, align 8
  %0 = load ptr, ptr %position.addr, align 8
  store ptr %0, ptr %destPosition, align 8
  %1 = load ptr, ptr %position.addr, align 8
  %add.ptr = getelementptr inbounds %"struct.EA::UnitTest::TestCollection::TestInfo", ptr %1, i64 1
  %mpEnd = getelementptr inbounds %"struct.eastl::VectorBase", ptr %this1, i32 0, i32 1
  %2 = load ptr, ptr %mpEnd, align 8
  %cmp = icmp ult ptr %add.ptr, %2
  br i1 %cmp, label %if.then, label %if.end

if.then:                                          ; preds = %entry
  %3 = load ptr, ptr %destPosition, align 8
  %add.ptr2 = getelementptr inbounds %"struct.EA::UnitTest::TestCollection::TestInfo", ptr %3, i64 1
  %mpEnd3 = getelementptr inbounds %"struct.eastl::VectorBase", ptr %this1, i32 0, i32 1
  %4 = load ptr, ptr %mpEnd3, align 8
  %5 = load ptr, ptr %destPosition, align 8
  %call = call noundef ptr @_ZN5eastl4moveIPN2EA8UnitTest14TestCollection8TestInfoES5_EET0_T_S7_S6_(ptr noundef %add.ptr2, ptr noundef %4, ptr noundef %5)
  br label %if.end

if.end:                                           ; preds = %if.then, %entry
  %mpEnd4 = getelementptr inbounds %"struct.eastl::VectorBase", ptr %this1, i32 0, i32 1
  %6 = load ptr, ptr %mpEnd4, align 8
  %incdec.ptr = getelementptr inbounds %"struct.EA::UnitTest::TestCollection::TestInfo", ptr %6, i32 -1
  store ptr %incdec.ptr, ptr %mpEnd4, align 8
  %7 = load ptr, ptr %destPosition, align 8
  ret ptr %7
}

; Function Attrs: mustprogress nounwind uwtable
define linkonce_odr dso_local noundef ptr @_ZN5eastl6vectorIN2EA8UnitTest14TestCollection8TestInfoENS_9allocatorEE3endEv(ptr noundef nonnull align 8 dereferenceable(24) %this) #1 comdat align 2 {
entry:
  %this.addr = alloca ptr, align 8
  store ptr %this, ptr %this.addr, align 8
  %this1 = load ptr, ptr %this.addr, align 8
  %mpEnd = getelementptr inbounds %"struct.eastl::VectorBase", ptr %this1, i32 0, i32 1
  %0 = load ptr, ptr %mpEnd, align 8
  ret ptr %0
}

; Function Attrs: mustprogress nounwind uwtable
define linkonce_odr dso_local noundef ptr @_ZN5eastl6vectorIN2EA8UnitTest14TestCollection8TestInfoENS_9allocatorEE5beginEv(ptr noundef nonnull align 8 dereferenceable(24) %this) #1 comdat align 2 {
entry:
  %this.addr = alloca ptr, align 8
  store ptr %this, ptr %this.addr, align 8
  %this1 = load ptr, ptr %this.addr, align 8
  %mpBegin = getelementptr inbounds %"struct.eastl::VectorBase", ptr %this1, i32 0, i32 0
  %0 = load ptr, ptr %mpBegin, align 8
  ret ptr %0
}

; Function Attrs: mustprogress uwtable
define dso_local noundef zeroext i1 @_ZN2EA8UnitTest14TestCollection10RemoveTestEPNS0_4TestEb(ptr noundef nonnull align 8 dereferenceable(32) %this, ptr noundef %pTest, i1 noundef zeroext %bDeleteIfOwned) unnamed_addr #2 align 2 {
entry:
  %retval = alloca i1, align 1
  %this.addr = alloca ptr, align 8
  %pTest.addr = alloca ptr, align 8
  %bDeleteIfOwned.addr = alloca i8, align 1
  %itA = alloca ptr, align 8
  %testInfoA = alloca ptr, align 8
  store ptr %this, ptr %this.addr, align 8
  store ptr %pTest, ptr %pTest.addr, align 8
  %frombool = zext i1 %bDeleteIfOwned to i8
  store i8 %frombool, ptr %bDeleteIfOwned.addr, align 1
  %this1 = load ptr, ptr %this.addr, align 8
  %mTests = getelementptr inbounds %"class.EA::UnitTest::TestCollection", ptr %this1, i32 0, i32 1
  %call = call noundef ptr @_ZN5eastl6vectorIN2EA8UnitTest14TestCollection8TestInfoENS_9allocatorEE5beginEv(ptr noundef nonnull align 8 dereferenceable(24) %mTests) #13
  store ptr %call, ptr %itA, align 8
  br label %for.cond

for.cond:                                         ; preds = %for.inc, %entry
  %0 = load ptr, ptr %itA, align 8
  %mTests2 = getelementptr inbounds %"class.EA::UnitTest::TestCollection", ptr %this1, i32 0, i32 1
  %call3 = call noundef ptr @_ZN5eastl6vectorIN2EA8UnitTest14TestCollection8TestInfoENS_9allocatorEE3endEv(ptr noundef nonnull align 8 dereferenceable(24) %mTests2) #13
  %cmp = icmp ne ptr %0, %call3
  br i1 %cmp, label %for.body, label %for.end

for.body:                                         ; preds = %for.cond
  %1 = load ptr, ptr %itA, align 8
  store ptr %1, ptr %testInfoA, align 8
  %2 = load ptr, ptr %testInfoA, align 8
  %mpTest = getelementptr inbounds %"struct.EA::UnitTest::TestCollection::TestInfo", ptr %2, i32 0, i32 0
  %3 = load ptr, ptr %mpTest, align 8
  %4 = load ptr, ptr %pTest.addr, align 8
  %cmp4 = icmp eq ptr %3, %4
  br i1 %cmp4, label %if.then, label %if.end10

if.then:                                          ; preds = %for.body
  %5 = load i8, ptr %bDeleteIfOwned.addr, align 1
  %tobool = trunc i8 %5 to i1
  br i1 %tobool, label %land.lhs.true, label %if.end

land.lhs.true:                                    ; preds = %if.then
  %6 = load ptr, ptr %testInfoA, align 8
  %mbOwned = getelementptr inbounds %"struct.EA::UnitTest::TestCollection::TestInfo", ptr %6, i32 0, i32 1
  %7 = load i8, ptr %mbOwned, align 8
  %tobool5 = trunc i8 %7 to i1
  br i1 %tobool5, label %if.then6, label %if.end

if.then6:                                         ; preds = %land.lhs.true
  %8 = load ptr, ptr %testInfoA, align 8
  %mpTest7 = getelementptr inbounds %"struct.EA::UnitTest::TestCollection::TestInfo", ptr %8, i32 0, i32 0
  %9 = load ptr, ptr %mpTest7, align 8
  %isnull = icmp eq ptr %9, null
  br i1 %isnull, label %delete.end, label %delete.notnull

delete.notnull:                                   ; preds = %if.then6
  %vtable = load ptr, ptr %9, align 8
  %vfn = getelementptr inbounds ptr, ptr %vtable, i64 1
  %10 = load ptr, ptr %vfn, align 8
  call void %10(ptr noundef nonnull align 8 dereferenceable(80) %9) #13
  br label %delete.end

delete.end:                                       ; preds = %delete.notnull, %if.then6
  br label %if.end

if.end:                                           ; preds = %delete.end, %land.lhs.true, %if.then
  %mTests8 = getelementptr inbounds %"class.EA::UnitTest::TestCollection", ptr %this1, i32 0, i32 1
  %11 = load ptr, ptr %itA, align 8
  %call9 = call noundef ptr @_ZN5eastl6vectorIN2EA8UnitTest14TestCollection8TestInfoENS_9allocatorEE5eraseEPKS4_(ptr noundef nonnull align 8 dereferenceable(24) %mTests8, ptr noundef %11)
  store i1 true, ptr %retval, align 1
  br label %return

if.end10:                                         ; preds = %for.body
  br label %for.inc

for.inc:                                          ; preds = %if.end10
  %12 = load ptr, ptr %itA, align 8
  %incdec.ptr = getelementptr inbounds %"struct.EA::UnitTest::TestCollection::TestInfo", ptr %12, i32 1
  store ptr %incdec.ptr, ptr %itA, align 8
  br label %for.cond, !llvm.loop !11

for.end:                                          ; preds = %for.cond
  store i1 false, ptr %retval, align 1
  br label %return

return:                                           ; preds = %for.end, %if.end
  %13 = load i1, ptr %retval, align 1
  ret i1 %13
}