; Function Attrs: mustprogress uwtable
define dso_local noundef zeroext i1 @_ZN2EA8UnitTest14TestCollection10RemoveTestEPNS0_4TestEb(ptr nocapture noundef nonnull align 8 dereferenceable(32) %this, ptr noundef readnone %pTest, i1 noundef zeroext %bDeleteIfOwned) unnamed_addr #0 align 2 {
entry:
  %mTests = getelementptr inbounds i8, ptr %this, i64 8
  %0 = load ptr, ptr %mTests, align 8
  %mpEnd.i = getelementptr inbounds i8, ptr %this, i64 16
  %1 = load ptr, ptr %mpEnd.i, align 8
  %cmp.not11.not = icmp eq ptr %0, %1
  br i1 %cmp.not11.not, label %return, label %for.body

for.body:                                         ; preds = %entry, %for.inc
  %itA.012 = phi ptr [ %incdec.ptr, %for.inc ], [ %0, %entry ]
  %2 = load ptr, ptr %itA.012, align 8
  %cmp4 = icmp eq ptr %2, %pTest
  br i1 %cmp4, label %if.then, label %for.inc

if.then:                                          ; preds = %for.body
  br i1 %bDeleteIfOwned, label %land.lhs.true, label %if.end

land.lhs.true:                                    ; preds = %if.then
  %mbOwned = getelementptr inbounds i8, ptr %itA.012, i64 8
  %3 = load i8, ptr %mbOwned, align 8
  %4 = and i8 %3, 1
  %tobool5.not = icmp eq i8 %4, 0
  %isnull = icmp eq ptr %pTest, null
  %or.cond = or i1 %isnull, %tobool5.not
  br i1 %or.cond, label %if.end, label %delete.notnull

delete.notnull:                                   ; preds = %land.lhs.true
  %vtable = load ptr, ptr %pTest, align 8
  %vfn = getelementptr inbounds i8, ptr %vtable, i64 8
  %5 = load ptr, ptr %vfn, align 8
  tail call void %5(ptr noundef nonnull align 8 dereferenceable(80) %pTest) #32
  %.pre = load ptr, ptr %mpEnd.i, align 8
  br label %if.end

if.end:                                           ; preds = %delete.notnull, %land.lhs.true, %if.then
  %6 = phi ptr [ %.pre, %delete.notnull ], [ %1, %land.lhs.true ], [ %1, %if.then ]
  %add.ptr.i = getelementptr inbounds i8, ptr %itA.012, i64 16
  %cmp.i = icmp ult ptr %add.ptr.i, %6
  br i1 %cmp.i, label %_ZN5eastl4moveIPN2EA8UnitTest14TestCollection8TestInfoES5_EET0_T_S7_S6_.exit.i, label %_ZN5eastl6vectorIN2EA8UnitTest14TestCollection8TestInfoENS_9allocatorEE5eraseEPKS4_.exit

_ZN5eastl4moveIPN2EA8UnitTest14TestCollection8TestInfoES5_EET0_T_S7_S6_.exit.i: ; preds = %if.end
  %7 = ptrtoint ptr %6 to i64
  %8 = ptrtoint ptr %add.ptr.i to i64
  %sub.i.i.i.i.i = sub i64 %7, %8
  tail call void @llvm.memmove.p0.p0.i64(ptr nonnull align 8 %itA.012, ptr nonnull align 8 %add.ptr.i, i64 %sub.i.i.i.i.i, i1 false)
  %.pre.i = load ptr, ptr %mpEnd.i, align 8
  br label %_ZN5eastl6vectorIN2EA8UnitTest14TestCollection8TestInfoENS_9allocatorEE5eraseEPKS4_.exit

_ZN5eastl6vectorIN2EA8UnitTest14TestCollection8TestInfoENS_9allocatorEE5eraseEPKS4_.exit: ; preds = %if.end, %_ZN5eastl4moveIPN2EA8UnitTest14TestCollection8TestInfoES5_EET0_T_S7_S6_.exit.i
  %9 = phi ptr [ %.pre.i, %_ZN5eastl4moveIPN2EA8UnitTest14TestCollection8TestInfoES5_EET0_T_S7_S6_.exit.i ], [ %6, %if.end ]
  %incdec.ptr.i = getelementptr inbounds i8, ptr %9, i64 -16
  store ptr %incdec.ptr.i, ptr %mpEnd.i, align 8
  br label %return

for.inc:                                          ; preds = %for.body
  %incdec.ptr = getelementptr inbounds i8, ptr %itA.012, i64 16
  %cmp.not.not = icmp eq ptr %incdec.ptr, %1
  br i1 %cmp.not.not, label %return, label %for.body, !llvm.loop !12

return:                                           ; preds = %for.inc, %entry, %_ZN5eastl6vectorIN2EA8UnitTest14TestCollection8TestInfoENS_9allocatorEE5eraseEPKS4_.exit
  %cmp.not8 = phi i1 [ true, %_ZN5eastl6vectorIN2EA8UnitTest14TestCollection8TestInfoENS_9allocatorEE5eraseEPKS4_.exit ], [ false, %entry ], [ false, %for.inc ]
  ret i1 %cmp.not8
}